; Function Attrs: nounwind uwtable
define hidden void @X11_AcceptDragAndDrop(ptr noundef readonly captures(none) %0, i1 noundef zeroext %1) local_unnamed_addr #0 {
  %3 = alloca i64, align 8
  %4 = getelementptr inbounds nuw i8, ptr %0, i64 392
  %5 = load ptr, ptr %4, align 8
  %6 = getelementptr inbounds nuw i8, ptr %5, i64 336
  %7 = load ptr, ptr %6, align 8
  %8 = load ptr, ptr %7, align 8
  %9 = getelementptr inbounds nuw i8, ptr %7, i64 480
  %10 = load i64, ptr %9, align 8
  br i1 %1, label %11, label %16

11:                                               ; preds = %2
  call void @llvm.lifetime.start.p0(i64 8, ptr nonnull %3) #12
  store i64 5, ptr %3, align 8
  %12 = load ptr, ptr @X11_XChangeProperty, align 8
  %13 = getelementptr inbounds nuw i8, ptr %5, i64 8
  %14 = load i64, ptr %13, align 8
  %15 = call i32 %12(ptr noundef %8, i64 noundef %14, i64 noundef %10, i64 noundef 4, i32 noundef 32, i32 noundef 0, ptr noundef nonnull %3, i32 noundef 1) #12
  call void @llvm.lifetime.end.p0(i64 8, ptr nonnull %3) #12
  br label %21

16:                                               ; preds = %2
  %17 = load ptr, ptr @X11_XDeleteProperty, align 8
  %18 = getelementptr inbounds nuw i8, ptr %5, i64 8
  %19 = load i64, ptr %18, align 8
  %20 = tail call i32 %17(ptr noundef %8, i64 noundef %19, i64 noundef %10) #12
  br label %21

21:                                               ; preds = %16, %11
  ret void
}